; Function Attrs: mustprogress nofree norecurse nosync nounwind willreturn memory(argmem: write) uwtable
define noundef i32 @OnUpdateString(ptr nocapture noundef readnone %0, ptr noundef %1, ptr noundef %2, ptr nocapture noundef writeonly %3, ptr nocapture noundef readnone %4, i32 noundef %5) local_unnamed_addr #10 {
  %7 = ptrtoint ptr %2 to i64
  %8 = getelementptr inbounds i8, ptr %3, i64 %7
  %.not = icmp eq ptr %1, null
  %9 = getelementptr inbounds i8, ptr %1, i64 24
  %10 = select i1 %.not, ptr null, ptr %9
  store ptr %10, ptr %8, align 8
  ret i32 0
}